target datalayout = "e-m:e-p270:32:32-p271:32:32-p272:64:64-i64:64-i128:128-f80:128-n8:16:32:64-S128"
target triple = "x86_64-pc-linux-gnu"

%"struct.pkpy::Str" = type { i32, i8, ptr, [16 x i8] }
%"class.pkpy::REPL" = type { i32, %"class.std::__cxx11::basic_string", ptr }
%"class.std::__cxx11::basic_string" = type { %"struct.std::__cxx11::basic_string<char>::_Alloc_hider", i64, %union.anon }
%"struct.std::__cxx11::basic_string<char>::_Alloc_hider" = type { ptr }
%union.anon = type { i64, [8 x i8] }

@.str = private unnamed_addr constant [40 x i8] c"pocketpy 1.4.6 (Jun 26 2024, 03:03:34) \00", align 1
@.str.1 = private unnamed_addr constant [2 x i8] c"[\00", align 1
@.str.2 = private unnamed_addr constant [10 x i8] c" bit] on \00", align 1
@_ZN4pkpy16kPlatformStringsE = linkonce_odr global [7 x ptr] [ptr @.str.7, ptr @.str.8, ptr @.str.9, ptr @.str.10, ptr @.str.11, ptr @.str.12, ptr @.str.13], comdat, align 16
@.str.3 = private unnamed_addr constant [2 x i8] c"\0A\00", align 1
@.str.4 = private unnamed_addr constant [38 x i8] c"https://github.com/pocketpy/pocketpy\0A\00", align 1
@.str.5 = private unnamed_addr constant [24 x i8] c"Type \22exit()\22 to exit.\0A\00", align 1

; Function Attrs: mustprogress uwtable
define void @_ZN4pkpy4REPLC2EPNS_2VME(ptr noundef nonnull align 8 dereferenceable(48) %0, ptr noundef %1) unnamed_addr #4 align 2 personality ptr @__gxx_personality_v0 {
  %3 = alloca ptr, align 8
  %4 = alloca ptr, align 8
  %5 = alloca %"struct.pkpy::Str", align 8
  %6 = alloca ptr, align 8
  %7 = alloca i32, align 4
  %8 = alloca %"struct.pkpy::Str", align 8
  %9 = alloca i64, align 8
  %10 = alloca %"struct.pkpy::Str", align 8
  %11 = alloca %"struct.pkpy::Str", align 8
  store ptr %0, ptr %3, align 8
  store ptr %1, ptr %4, align 8
  %12 = load ptr, ptr %3, align 8
  %13 = getelementptr inbounds %"class.pkpy::REPL", ptr %12, i32 0, i32 0
  store i32 0, ptr %13, align 8
  %14 = getelementptr inbounds %"class.pkpy::REPL", ptr %12, i32 0, i32 1
  call void @_ZNSt7__cxx1112basic_stringIcSt11char_traitsIcESaIcEEC1Ev(ptr noundef nonnull align 8 dereferenceable(32) %14) #3
  %15 = getelementptr inbounds %"class.pkpy::REPL", ptr %12, i32 0, i32 2
  %16 = load ptr, ptr %4, align 8
  store ptr %16, ptr %15, align 8
  %17 = load ptr, ptr %4, align 8
  invoke void @_ZN4pkpy3StrC1EPKc(ptr noundef nonnull align 8 dereferenceable(32) %5, ptr noundef @.str)
          to label %18 unwind label %41

18:                                               ; preds = %2
  %19 = load ptr, ptr %17, align 8
  %20 = getelementptr inbounds ptr, ptr %19, i64 0
  %21 = load ptr, ptr %20, align 8
  invoke void %21(ptr noundef nonnull align 8 dereferenceable(264913) %17, ptr noundef nonnull align 8 dereferenceable(32) %5)
          to label %22 unwind label %45

22:                                               ; preds = %18
  call void @_ZN4pkpy3StrD1Ev(ptr noundef nonnull align 8 dereferenceable(32) %5) #3
  %23 = load ptr, ptr %4, align 8
  store i64 64, ptr %9, align 8
  invoke void @_ZN4pkpy2_SIJRA2_KcmRA10_S1_RPS1_S3_EEENS_3StrEDpOT_(ptr dead_on_unwind writable sret(%"struct.pkpy::Str") align 8 %8, ptr noundef nonnull align 1 dereferenceable(2) @.str.1, ptr noundef nonnull align 8 dereferenceable(8) %9, ptr noundef nonnull align 1 dereferenceable(10) @.str.2, ptr noundef nonnull align 8 dereferenceable(8) getelementptr inbounds ([7 x ptr], ptr @_ZN4pkpy16kPlatformStringsE, i64 0, i64 5), ptr noundef nonnull align 1 dereferenceable(2) @.str.3)
          to label %24 unwind label %41

24:                                               ; preds = %22
  %25 = load ptr, ptr %23, align 8
  %26 = getelementptr inbounds ptr, ptr %25, i64 0
  %27 = load ptr, ptr %26, align 8
  invoke void %27(ptr noundef nonnull align 8 dereferenceable(264913) %23, ptr noundef nonnull align 8 dereferenceable(32) %8)
          to label %28 unwind label %49

28:                                               ; preds = %24
  call void @_ZN4pkpy3StrD1Ev(ptr noundef nonnull align 8 dereferenceable(32) %8) #3
  %29 = load ptr, ptr %4, align 8
  invoke void @_ZN4pkpy3StrC1EPKc(ptr noundef nonnull align 8 dereferenceable(32) %10, ptr noundef @.str.4)
          to label %30 unwind label %41

30:                                               ; preds = %28
  %31 = load ptr, ptr %29, align 8
  %32 = getelementptr inbounds ptr, ptr %31, i64 0
  %33 = load ptr, ptr %32, align 8
  invoke void %33(ptr noundef nonnull align 8 dereferenceable(264913) %29, ptr noundef nonnull align 8 dereferenceable(32) %10)
          to label %34 unwind label %53

34:                                               ; preds = %30
  call void @_ZN4pkpy3StrD1Ev(ptr noundef nonnull align 8 dereferenceable(32) %10) #3
  %35 = load ptr, ptr %4, align 8
  invoke void @_ZN4pkpy3StrC1EPKc(ptr noundef nonnull align 8 dereferenceable(32) %11, ptr noundef @.str.5)
          to label %36 unwind label %41

36:                                               ; preds = %34
  %37 = load ptr, ptr %35, align 8
  %38 = getelementptr inbounds ptr, ptr %37, i64 0
  %39 = load ptr, ptr %38, align 8
  invoke void %39(ptr noundef nonnull align 8 dereferenceable(264913) %35, ptr noundef nonnull align 8 dereferenceable(32) %11)
          to label %40 unwind label %57

40:                                               ; preds = %36
  call void @_ZN4pkpy3StrD1Ev(ptr noundef nonnull align 8 dereferenceable(32) %11) #3
  ret void

41:                                               ; preds = %34, %28, %22, %2
  %42 = landingpad { ptr, i32 }
          cleanup
  %43 = extractvalue { ptr, i32 } %42, 0
  store ptr %43, ptr %6, align 8
  %44 = extractvalue { ptr, i32 } %42, 1
  store i32 %44, ptr %7, align 4
  br label %61

45:                                               ; preds = %18
  %46 = landingpad { ptr, i32 }
          cleanup
  %47 = extractvalue { ptr, i32 } %46, 0
  store ptr %47, ptr %6, align 8
  %48 = extractvalue { ptr, i32 } %46, 1
  store i32 %48, ptr %7, align 4
  call void @_ZN4pkpy3StrD1Ev(ptr noundef nonnull align 8 dereferenceable(32) %5) #3
  br label %61

49:                                               ; preds = %24
  %50 = landingpad { ptr, i32 }
          cleanup
  %51 = extractvalue { ptr, i32 } %50, 0
  store ptr %51, ptr %6, align 8
  %52 = extractvalue { ptr, i32 } %50, 1
  store i32 %52, ptr %7, align 4
  call void @_ZN4pkpy3StrD1Ev(ptr noundef nonnull align 8 dereferenceable(32) %8) #3
  br label %61

53:                                               ; preds = %30
  %54 = landingpad { ptr, i32 }
          cleanup
  %55 = extractvalue { ptr, i32 } %54, 0
  store ptr %55, ptr %6, align 8
  %56 = extractvalue { ptr, i32 } %54, 1
  store i32 %56, ptr %7, align 4
  call void @_ZN4pkpy3StrD1Ev(ptr noundef nonnull align 8 dereferenceable(32) %10) #3
  br label %61

57:                                               ; preds = %36
  %58 = landingpad { ptr, i32 }
          cleanup
  %59 = extractvalue { ptr, i32 } %58, 0
  store ptr %59, ptr %6, align 8
  %60 = extractvalue { ptr, i32 } %58, 1
  store i32 %60, ptr %7, align 4
  call void @_ZN4pkpy3StrD1Ev(ptr noundef nonnull align 8 dereferenceable(32) %11) #3
  br label %61

61:                                               ; preds = %57, %53, %49, %45, %41
  call void @_ZNSt7__cxx1112basic_stringIcSt11char_traitsIcESaIcEED1Ev(ptr noundef nonnull align 8 dereferenceable(32) %14) #3
  br label %62

62:                                               ; preds = %61
  %63 = load ptr, ptr %6, align 8
  %64 = load i32, ptr %7, align 4
  %65 = insertvalue { ptr, i32 } poison, ptr %63, 0
  %66 = insertvalue { ptr, i32 } %65, i32 %64, 1
  resume { ptr, i32 } %66
}