; Function Attrs: mustprogress uwtable
define void @_ZN4pkpy4REPLC2EPNS_2VME(ptr noundef nonnull align 8 dereferenceable(48) %0, ptr noundef %1) unnamed_addr #3 align 2 personality ptr @__gxx_personality_v0 {
  %3 = alloca %"struct.pkpy::Str", align 8
  %4 = alloca %"struct.pkpy::Str", align 8
  %5 = alloca i64, align 8
  %6 = alloca %"struct.pkpy::Str", align 8
  %7 = alloca %"struct.pkpy::Str", align 8
  store i32 0, ptr %0, align 8
  %8 = getelementptr inbounds i8, ptr %0, i64 8
  tail call void @_ZNSt7__cxx1112basic_stringIcSt11char_traitsIcESaIcEEC1Ev(ptr noundef nonnull align 8 dereferenceable(32) %8) #7
  %9 = getelementptr inbounds i8, ptr %0, i64 40
  store ptr %1, ptr %9, align 8
  invoke void @_ZN4pkpy3StrC1EPKc(ptr noundef nonnull align 8 dereferenceable(32) %3, ptr noundef nonnull @.str)
          to label %10 unwind label %26

10:                                               ; preds = %2
  %11 = load ptr, ptr %1, align 8
  %12 = load ptr, ptr %11, align 8
  invoke void %12(ptr noundef nonnull align 8 dereferenceable(264913) %1, ptr noundef nonnull align 8 dereferenceable(32) %3)
          to label %13 unwind label %28

13:                                               ; preds = %10
  call void @_ZN4pkpy3StrD1Ev(ptr noundef nonnull align 8 dereferenceable(32) %3) #7
  store i64 64, ptr %5, align 8
  invoke void @_ZN4pkpy2_SIJRA2_KcmRA10_S1_RPS1_S3_EEENS_3StrEDpOT_(ptr dead_on_unwind nonnull writable sret(%"struct.pkpy::Str") align 8 %4, ptr noundef nonnull align 1 dereferenceable(2) @.str.1, ptr noundef nonnull align 8 dereferenceable(8) %5, ptr noundef nonnull align 1 dereferenceable(10) @.str.2, ptr noundef nonnull align 8 dereferenceable(8) getelementptr inbounds (i8, ptr @_ZN4pkpy16kPlatformStringsE, i64 40), ptr noundef nonnull align 1 dereferenceable(2) @.str.3)
          to label %14 unwind label %26

14:                                               ; preds = %13
  %15 = load ptr, ptr %1, align 8
  %16 = load ptr, ptr %15, align 8
  invoke void %16(ptr noundef nonnull align 8 dereferenceable(264913) %1, ptr noundef nonnull align 8 dereferenceable(32) %4)
          to label %17 unwind label %30

17:                                               ; preds = %14
  call void @_ZN4pkpy3StrD1Ev(ptr noundef nonnull align 8 dereferenceable(32) %4) #7
  invoke void @_ZN4pkpy3StrC1EPKc(ptr noundef nonnull align 8 dereferenceable(32) %6, ptr noundef nonnull @.str.4)
          to label %18 unwind label %26

18:                                               ; preds = %17
  %19 = load ptr, ptr %1, align 8
  %20 = load ptr, ptr %19, align 8
  invoke void %20(ptr noundef nonnull align 8 dereferenceable(264913) %1, ptr noundef nonnull align 8 dereferenceable(32) %6)
          to label %21 unwind label %32

21:                                               ; preds = %18
  call void @_ZN4pkpy3StrD1Ev(ptr noundef nonnull align 8 dereferenceable(32) %6) #7
  invoke void @_ZN4pkpy3StrC1EPKc(ptr noundef nonnull align 8 dereferenceable(32) %7, ptr noundef nonnull @.str.5)
          to label %22 unwind label %26

22:                                               ; preds = %21
  %23 = load ptr, ptr %1, align 8
  %24 = load ptr, ptr %23, align 8
  invoke void %24(ptr noundef nonnull align 8 dereferenceable(264913) %1, ptr noundef nonnull align 8 dereferenceable(32) %7)
          to label %25 unwind label %34

25:                                               ; preds = %22
  call void @_ZN4pkpy3StrD1Ev(ptr noundef nonnull align 8 dereferenceable(32) %7) #7
  ret void

26:                                               ; preds = %21, %17, %13, %2
  %27 = landingpad { ptr, i32 }
          cleanup
  br label %36

28:                                               ; preds = %10
  %29 = landingpad { ptr, i32 }
          cleanup
  call void @_ZN4pkpy3StrD1Ev(ptr noundef nonnull align 8 dereferenceable(32) %3) #7
  br label %36

30:                                               ; preds = %14
  %31 = landingpad { ptr, i32 }
          cleanup
  call void @_ZN4pkpy3StrD1Ev(ptr noundef nonnull align 8 dereferenceable(32) %4) #7
  br label %36

32:                                               ; preds = %18
  %33 = landingpad { ptr, i32 }
          cleanup
  call void @_ZN4pkpy3StrD1Ev(ptr noundef nonnull align 8 dereferenceable(32) %6) #7
  br label %36

34:                                               ; preds = %22
  %35 = landingpad { ptr, i32 }
          cleanup
  call void @_ZN4pkpy3StrD1Ev(ptr noundef nonnull align 8 dereferenceable(32) %7) #7
  br label %36

36:                                               ; preds = %34, %32, %30, %28, %26
  %.pn = phi { ptr, i32 } [ %35, %34 ], [ %27, %26 ], [ %33, %32 ], [ %31, %30 ], [ %29, %28 ]
  call void @_ZNSt7__cxx1112basic_stringIcSt11char_traitsIcESaIcEED1Ev(ptr noundef nonnull align 8 dereferenceable(32) %8) #7
  resume { ptr, i32 } %.pn
}